Certificate:
    Data:
        Version: 3 (0x2)
        Serial Number:
            fa:6e:31:27:e0:c6:b9:55:6d:b0:26:eb:4c:8a:24:5c
        Signature Algorithm: sha256WithRSAEncryption
        Issuer: C=DE, O=Green Delta, CN=Root CA
        Validity
            Not Before: Jun 20 09:57:21 2023 GMT
            Not After : Jun 17 09:57:21 2033 GMT
        Subject: C=DE, O=Green Delta, CN=Nexus CA
        Subject Public Key Info:
            Public Key Algorithm: rsaEncryption
                Public-Key: (2048 bit)
                Modulus:
                    00:dc:07:77:69:05:6e:07:f1:2b:47:ea:a5:e8:30:
                    c4:63:41:e0:89:1b:9a:5e:1a:36:d7:c0:a1:1b:31:
                    0d:a2:69:8a:e5:63:fd:0e:3f:db:9e:3c:e7:78:8d:
                    d4:d3:7e:3d:88:c7:a3:0e:d7:00:6d:25:b9:cc:a5:
                    1f:18:35:8a:94:2f:72:6a:24:79:95:60:71:d4:05:
                    d6:7b:af:0c:aa:9e:b7:ef:c2:37:e1:1d:f0:e0:a1:
                    ee:28:74:30:44:a0:39:96:41:bd:dd:5a:19:e6:ce:
                    a0:95:ab:ba:b3:04:70:d7:94:dd:3d:92:62:f7:e8:
                    5b:1b:d2:bc:ea:4f:f9:2f:1c:96:c0:60:2b:09:26:
                    83:69:c8:0c:01:a4:b7:3c:9f:e6:72:b0:dd:70:43:
                    0d:41:47:b9:6d:e0:5e:ef:60:bb:b3:6f:ed:42:ef:
                    a1:8b:26:9c:54:41:b8:46:ef:33:48:4d:ff:a2:43:
                    d4:61:fc:97:93:86:52:ed:3e:4c:59:cc:26:88:16:
                    af:db:e8:71:c6:31:b2:d9:93:51:6a:58:c5:3b:aa:
                    11:21:9f:8c:81:7f:a6:c8:dd:a9:b8:30:29:bc:6e:
                    0d:06:25:18:64:5a:e4:6b:98:bf:35:11:32:82:3f:
                    4d:e5:f8:0c:1f:f5:42:95:b2:e7:70:6a:e2:dc:21:
                    3f:0f
                Exponent: 65537 (0x10001)
        X509v3 extensions:
            Authority Information Access: 
                CA Issuers - URI:http://root-ca.nexus.openlca.org/root-ca.crt
                OCSP - URI:http://ocsp.root-ca.nexus.openlca.org:9080
            X509v3 Authority Key Identifier: 
                39:01:57:FE:46:02:C7:46:16:CE:39:2C:DB:74:2E:F0:B7:B6:2C:EC
            X509v3 Basic Constraints: critical
                CA:TRUE, pathlen:0
            X509v3 CRL Distribution Points: 
                Full Name:
                  URI:http://root-ca.nexus.openlca.org/root-ca.crl
            X509v3 Extended Key Usage: 
                TLS Web Client Authentication, TLS Web Server Authentication
            X509v3 Key Usage: critical
                Certificate Sign, CRL Sign
            X509v3 Name Constraints: 
                Permitted:
                  DNS:example.com
                  DNS:example.org
                Excluded:
                  IP:0.0.0.0/0.0.0.0
                  IP:0:0:0:0:0:0:0:0/0:0:0:0:0:0:0:0
            X509v3 Subject Key Identifier: 
                5B:DB:BC:4A:46:93:A1:8B:B8:CF:0A:2C:C6:DA:0C:29:41:D6:AF:C8
    Signature Algorithm: sha256WithRSAEncryption
    Signature Value:
        43:de:ad:bd:6c:52:61:d8:1a:61:00:74:99:6e:ed:bb:b2:8b:
        36:15:25:67:e0:4e:30:05:8a:51:0b:48:e7:e0:ef:af:62:f8:
        45:18:72:bf:80:6b:af:3e:83:7f:3d:36:c8:7b:a0:02:fe:78:
        64:95:a5:a1:e6:05:31:c0:dd:8e:06:eb:dc:6a:04:f8:eb:ed:
        7c:26:84:a6:b0:2f:e2:88:ac:b1:c3:94:46:3d:57:9b:bf:f8:
        88:c5:dd:32:22:96:70:0e:47:68:af:9d:25:e6:09:1a:fd:43:
        f9:7a:23:44:41:ce:2e:94:9f:34:73:41:65:e5:0c:86:01:58:
        22:12:11:58:4e:fa:a8:bc:3d:27:63:89:05:a3:df:97:7b:98:
        4c:e4:35:f8:5a:59:d6:89:63:d1:60:30:56:04:e7:9a:d2:c0:
        7d:3f:bc:c8:80:d6:30:31:64:e3:1f:89:21:90:9e:54:a6:91:
        4d:94:e3:b5:7e:e9:81:72:04:c2:99:98:e5:2b:d4:af:c6:e2:
        55:0b:0b:05:66:26:c8:3e:fd:c9:22:94:29:e9:05:4b:db:d6:
        1a:dc:d9:00:02:8a:23:d1:f3:75:3a:a0:de:6c:1b:28:0d:ac:
        2c:5e:0d:fe:c1:42:f6:66:3f:36:99:17:9f:18:79:c8:d5:ad:
        e8:b6:10:08:c3:ea:d4:05:25:a1:eb:5a:f3:d5:c8:9a:58:e3:
        c5:94:26:ea:d1:4c:9c:99:c7:e2:8a:5f:d8:42:3b:0e:52:56:
        f0:8e:e3:36:c8:d7:ae:c9:4b:88:e9:aa:d9:c1:55:8c:39:6e:
        d7:fb:54:e7:f3:3f:3a:e8:e9:36:08:5e:cd:13:71:83:c7:3d:
        f3:78:6d:00:e7:15:7e:8f:a9:1c:20:97:91:59:35:cc:46:76:
        78:44:27:d7:53:24:a0:38:4d:6f:3d:32:ad:33:b8:c9:ad:3f:
        73:14:be:9b:ee:92:7a:85:27:45:11:0c:22:45:60:e6:e0:25:
        33:41:0f:f2:fe:67:9f:28:ba:41:ce:1d:b3:e0:36:e1:77:9e:
        42:31:75:14:30:9d:02:77:c2:29:d9:4f:7c:5a:db:6e:9a:87:
        41:b3:79:62:b6:6d:f6:1f:36:9f:06:3f:3f:f6:5e:9f:56:c6:
        2e:e0:57:dd:01:d4:65:a7:a2:47:28:4f:d6:28:52:a3:01:77:
        53:19:15:e7:c3:3c:29:4b:cc:c8:74:ba:c7:43:f5:e0:75:43:
        2d:ad:25:1c:93:7a:83:6e:6b:5c:8c:40:db:97:87:c4:37:7e:
        3f:19:e7:1a:ff:b4:ff:3a:fa:a9:00:af:c0:4b:fc:e5:b0:21:
        11:13:b5:64:b8:92:eb:9e
-----BEGIN CERTIFICATE-----
MIIFnjCCA4agAwIBAgIRAPpuMSfgxrlVbbAm60yKJFwwDQYJKoZIhvcNAQELBQAw
NTELMAkGA1UEBhMCREUxFDASBgNVBAoMC0dyZWVuIERlbHRhMRAwDgYDVQQDDAdS
b290IENBMB4XDTIzMDYyMDA5NTcyMVoXDTMzMDYxNzA5NTcyMVowNjELMAkGA1UE
BhMCREUxFDASBgNVBAoMC0dyZWVuIERlbHRhMREwDwYDVQQDDAhOZXh1cyBDQTCC
ASIwDQYJKoZIhvcNAQEBBQADggEPADCCAQoCggEBANwHd2kFbgfxK0fqpegwxGNB
4Ikbml4aNtfAoRsxDaJpiuVj/Q4/254853iN1NN+PYjHow7XAG0lucylHxg1ipQv
cmokeZVgcdQF1nuvDKqet+/CN+Ed8OCh7ih0MESgOZZBvd1aGebOoJWrurMEcNeU
3T2SYvfoWxvSvOpP+S8clsBgKwkmg2nIDAGktzyf5nKw3XBDDUFHuW3gXu9gu7Nv
7ULvoYsmnFRBuEbvM0hN/6JD1GH8l5OGUu0+TFnMJogWr9voccYxstmTUWpYxTuq
ESGfjIF/psjdqbgwKbxuDQYlGGRa5GuYvzURMoI/TeX4DB/1QpWy53Bq4twhPw8C
AwEAAaOCAaYwggGiMIGABggrBgEFBQcBAQR0MHIwOAYIKwYBBQUHMAKGLGh0dHA6
Ly9yb290LWNhLm5leHVzLm9wZW5sY2Eub3JnL3Jvb3QtY2EuY3J0MDYGCCsGAQUF
BzABhipodHRwOi8vb2NzcC5yb290LWNhLm5leHVzLm9wZW5sY2Eub3JnOjkwODAw
HwYDVR0jBBgwFoAUOQFX/kYCx0YWzjks23Qu8Le2LOwwEgYDVR0TAQH/BAgwBgEB
/wIBADA9BgNVHR8ENjA0MDKgMKAuhixodHRwOi8vcm9vdC1jYS5uZXh1cy5vcGVu
bGNhLm9yZy9yb290LWNhLmNybDAdBgNVHSUEFjAUBggrBgEFBQcDAgYIKwYBBQUH
AwEwDgYDVR0PAQH/BAQDAgEGMFsGA1UdHgRUMFKgHjANggtleGFtcGxlLmNvbTAN
ggtleGFtcGxlLm9yZ6EwMAqHCAAAAAAAAAAAMCKHIAAAAAAAAAAAAAAAAAAAAAAA
AAAAAAAAAAAAAAAAAAAAMB0GA1UdDgQWBBRb27xKRpOhi7jPCizG2gwpQdavyDAN
BgkqhkiG9w0BAQsFAAOCAgEAQ96tvWxSYdgaYQB0mW7tu7KLNhUlZ+BOMAWKUQtI
5+Dvr2L4RRhyv4Brrz6Dfz02yHugAv54ZJWloeYFMcDdjgbr3GoE+OvtfCaEprAv
4oisscOURj1Xm7/4iMXdMiKWcA5HaK+dJeYJGv1D+XojREHOLpSfNHNBZeUMhgFY
IhIRWE76qLw9J2OJBaPfl3uYTOQ1+FpZ1olj0WAwVgTnmtLAfT+8yIDWMDFk4x+J
IZCeVKaRTZTjtX7pgXIEwpmY5SvUr8biVQsLBWYmyD79ySKUKekFS9vWGtzZAAKK
I9HzdTqg3mwbKA2sLF4N/sFC9mY/NpkXnxh5yNWt6LYQCMPq1AUloeta89XImljj
xZQm6tFMnJnH4opf2EI7DlJW8I7jNsjXrslLiOmq2cFVjDlu1/tU5/M/OujpNghe
zRNxg8c983htAOcVfo+pHCCXkVk1zEZ2eEQn11MkoDhNbz0yrTO4ya0/cxS+m+6S
eoUnRREMIkVg5uAlM0EP8v5nnyi6Qc4ds+A24XeeQjF1FDCdAnfCKdlPfFrbbpqH
QbN5YrZt9h82nwY/P/Zen1bGLuBX3QHUZaeiRyhP1ihSowF3UxkV58M8KUvMyHS6
x0P14HVDLa0lHJN6g25rXIxA25eHxDd+PxnnGv+0/zr6qQCvwEv85bAhERO1ZLiS
654=
-----END CERTIFICATE-----
