Certificate:
    Data:
        Version: 3 (0x2)
        Serial Number:
            8a:82:f4:44:6d:a7:7f:d9:ed:fd:af:8d:69:fd:36:11
        Signature Algorithm: sha256WithRSAEncryption
        Issuer: C=DE, O=Green Delta, CN=Root CA
        Validity
            Not Before: Jun 13 08:05:54 2023 GMT
            Not After : Jun 10 08:05:54 2033 GMT
        Subject: C=DE, O=Green Delta, CN=Nexus CA
        Subject Public Key Info:
            Public Key Algorithm: rsaEncryption
                Public-Key: (2048 bit)
                Modulus:
                    00:b1:e8:2d:1b:da:29:9d:67:ee:2f:97:a7:e7:f0:
                    6d:57:43:0d:1f:7f:89:5f:8f:28:a5:47:b7:99:8b:
                    73:8b:f4:95:af:40:72:96:bc:2d:ab:c2:8e:db:03:
                    95:37:64:1f:cc:72:dc:a6:7e:86:e0:7b:51:66:60:
                    59:ea:5f:20:89:d8:2b:e2:ac:6b:20:fc:d2:de:2e:
                    e2:f1:f6:be:22:aa:a5:4e:d4:12:a0:cf:61:bc:8c:
                    97:66:91:b4:67:b2:22:2b:e4:ce:e7:4e:c0:9c:a3:
                    9f:d8:c6:fc:fb:d1:5c:64:24:3a:a6:4e:10:b9:49:
                    63:59:12:15:de:1a:d9:08:ee:75:b5:63:ef:5f:a9:
                    51:85:5f:cc:fc:fa:b4:ae:7d:0b:ea:45:94:e7:2a:
                    9b:25:94:14:eb:df:f8:39:19:34:a8:32:45:99:57:
                    0f:80:6b:b4:d5:cd:8c:3c:bb:a8:40:b6:69:ac:1f:
                    c1:6a:6b:bd:ec:6e:3a:3f:68:01:82:95:ba:89:f0:
                    71:7d:cc:62:a4:1f:da:22:98:30:ea:51:ee:a9:32:
                    40:eb:1c:f6:46:f0:ee:b5:2c:61:1f:5a:d6:f1:41:
                    36:19:93:a3:32:d4:d3:de:0a:fc:54:54:03:84:f4:
                    df:1f:0b:22:50:66:a3:28:2e:be:17:ab:48:6e:14:
                    22:af
                Exponent: 65537 (0x10001)
        X509v3 extensions:
            Authority Information Access: 
                CA Issuers - URI:http://root-ca.nexus.openlca.org/root-ca.crt
                OCSP - URI:http://ocsp.root-ca.nexus.openlca.org:9080
            X509v3 Authority Key Identifier: 
                9E:B9:72:89:15:FD:18:60:4A:31:85:4D:65:B7:52:6F:95:40:C9:90
            X509v3 Basic Constraints: critical
                CA:TRUE, pathlen:0
            X509v3 CRL Distribution Points: 
                Full Name:
                  URI:http://root-ca.nexus.openlca.org/root-ca.crl
            X509v3 Extended Key Usage: 
                TLS Web Client Authentication, TLS Web Server Authentication
            X509v3 Key Usage: critical
                Certificate Sign, CRL Sign
            X509v3 Name Constraints: 
                Permitted:
                  DNS:example.com
                  DNS:example.org
                Excluded:
                  IP:0.0.0.0/0.0.0.0
                  IP:0:0:0:0:0:0:0:0/0:0:0:0:0:0:0:0
            X509v3 Subject Key Identifier: 
                C8:47:53:4F:CF:7B:04:91:CB:27:D9:CA:C2:AA:02:E4:1F:3E:15:97
    Signature Algorithm: sha256WithRSAEncryption
    Signature Value:
        0c:0e:95:c1:2e:4a:67:5c:59:6d:46:e6:6e:bd:b0:1c:c1:1a:
        d3:c3:90:47:e5:79:a9:b2:e7:e0:2d:ea:31:f6:13:c0:7d:02:
        52:4a:13:c6:2e:1d:8f:0b:b2:0e:9c:28:37:f0:ca:6a:28:c4:
        17:74:25:80:b0:f9:65:ed:93:7d:b6:af:17:47:5b:55:ef:79:
        f8:d6:f1:cf:8f:e2:81:f1:32:78:63:15:c7:20:8b:cb:cf:d2:
        88:d0:0a:38:29:db:2a:4a:b3:94:6a:93:12:31:8a:ea:52:43:
        12:79:82:6d:1e:1a:b7:f3:5b:c1:d9:75:1d:69:1c:35:4a:50:
        40:54:13:92:91:29:85:0e:a7:cb:f4:e2:04:b9:95:18:cb:17:
        5b:21:08:1e:60:3c:9c:8a:d3:ab:70:61:47:0b:a4:2a:e7:7d:
        48:ab:f0:89:54:03:1f:f9:b5:2a:45:cb:99:52:96:f9:66:55:
        49:96:6e:44:ad:ed:83:53:39:98:8d:8b:55:95:7a:e4:3d:04:
        b7:09:c5:95:e5:fe:da:b7:a1:10:51:c1:bb:0b:50:4b:8b:48:
        93:a2:08:83:6b:14:78:36:7d:8e:25:82:e6:af:d0:68:77:b9:
        45:34:74:b8:a3:7e:f2:5e:ee:d3:7c:97:26:56:f1:03:e8:a1:
        0a:ae:aa:a7:08:8b:7e:8f:19:07:5a:10:2b:24:c0:fa:b2:cb:
        e2:b0:7a:a4:a6:36:52:fc:2e:0e:0a:0d:a2:b0:19:81:45:3e:
        51:b6:0a:ca:1c:32:ad:34:a2:dd:b7:07:1b:67:fa:f2:c8:3c:
        8a:a8:c9:ef:16:da:c9:e8:a2:c3:f0:c6:a1:7d:c5:c9:37:83:
        85:6d:ba:54:c1:6f:0c:e6:2e:59:ca:ee:28:83:9f:e5:19:79:
        aa:f6:e5:17:90:2d:9b:63:cd:20:4b:1a:d1:63:37:75:84:8e:
        8b:dd:d0:95:bd:83:69:b8:ff:ff:8a:80:7f:04:1b:49:e0:ae:
        19:6b:7d:0e:8b:ef:7b:90:4b:d4:fd:88:d5:d3:25:71:b6:fa:
        d9:87:1c:20:42:3c:6a:6e:32:e3:24:51:4e:a3:1b:78:b8:d2:
        32:10:d6:dd:1c:70:61:d5:58:91:26:28:ad:84:5c:bd:75:3a:
        66:a2:8f:9a:ad:38:08:a9:1b:7c:6e:83:5e:21:03:d8:c2:c1:
        b6:04:24:b6:78:26:22:33:7f:05:e5:e1:99:5f:b1:a2:5d:7f:
        c9:1b:46:16:25:89:88:a4:6a:a7:99:2f:cf:c2:bd:d3:cc:a8:
        e8:87:21:39:93:7a:f2:6f:9b:4d:57:c2:fd:c5:3b:99:bc:16:
        4f:3a:ba:ff:3c:fb:e0:00
-----BEGIN CERTIFICATE-----
MIIFnjCCA4agAwIBAgIRAIqC9ERtp3/Z7f2vjWn9NhEwDQYJKoZIhvcNAQELBQAw
NTELMAkGA1UEBhMCREUxFDASBgNVBAoMC0dyZWVuIERlbHRhMRAwDgYDVQQDDAdS
b290IENBMB4XDTIzMDYxMzA4MDU1NFoXDTMzMDYxMDA4MDU1NFowNjELMAkGA1UE
BhMCREUxFDASBgNVBAoMC0dyZWVuIERlbHRhMREwDwYDVQQDDAhOZXh1cyBDQTCC
ASIwDQYJKoZIhvcNAQEBBQADggEPADCCAQoCggEBALHoLRvaKZ1n7i+Xp+fwbVdD
DR9/iV+PKKVHt5mLc4v0la9Acpa8LavCjtsDlTdkH8xy3KZ+huB7UWZgWepfIInY
K+KsayD80t4u4vH2viKqpU7UEqDPYbyMl2aRtGeyIivkzudOwJyjn9jG/PvRXGQk
OqZOELlJY1kSFd4a2QjudbVj71+pUYVfzPz6tK59C+pFlOcqmyWUFOvf+DkZNKgy
RZlXD4BrtNXNjDy7qEC2aawfwWprvexuOj9oAYKVuonwcX3MYqQf2iKYMOpR7qky
QOsc9kbw7rUsYR9a1vFBNhmTozLU094K/FRUA4T03x8LIlBmoyguvherSG4UIq8C
AwEAAaOCAaYwggGiMIGABggrBgEFBQcBAQR0MHIwOAYIKwYBBQUHMAKGLGh0dHA6
Ly9yb290LWNhLm5leHVzLm9wZW5sY2Eub3JnL3Jvb3QtY2EuY3J0MDYGCCsGAQUF
BzABhipodHRwOi8vb2NzcC5yb290LWNhLm5leHVzLm9wZW5sY2Eub3JnOjkwODAw
HwYDVR0jBBgwFoAUnrlyiRX9GGBKMYVNZbdSb5VAyZAwEgYDVR0TAQH/BAgwBgEB
/wIBADA9BgNVHR8ENjA0MDKgMKAuhixodHRwOi8vcm9vdC1jYS5uZXh1cy5vcGVu
bGNhLm9yZy9yb290LWNhLmNybDAdBgNVHSUEFjAUBggrBgEFBQcDAgYIKwYBBQUH
AwEwDgYDVR0PAQH/BAQDAgEGMFsGA1UdHgRUMFKgHjANggtleGFtcGxlLmNvbTAN
ggtleGFtcGxlLm9yZ6EwMAqHCAAAAAAAAAAAMCKHIAAAAAAAAAAAAAAAAAAAAAAA
AAAAAAAAAAAAAAAAAAAAMB0GA1UdDgQWBBTIR1NPz3sEkcsn2crCqgLkHz4VlzAN
BgkqhkiG9w0BAQsFAAOCAgEADA6VwS5KZ1xZbUbmbr2wHMEa08OQR+V5qbLn4C3q
MfYTwH0CUkoTxi4djwuyDpwoN/DKaijEF3QlgLD5Ze2TfbavF0dbVe95+Nbxz4/i
gfEyeGMVxyCLy8/SiNAKOCnbKkqzlGqTEjGK6lJDEnmCbR4at/Nbwdl1HWkcNUpQ
QFQTkpEphQ6ny/TiBLmVGMsXWyEIHmA8nIrTq3BhRwukKud9SKvwiVQDH/m1KkXL
mVKW+WZVSZZuRK3tg1M5mI2LVZV65D0EtwnFleX+2rehEFHBuwtQS4tIk6IIg2sU
eDZ9jiWC5q/QaHe5RTR0uKN+8l7u03yXJlbxA+ihCq6qpwiLfo8ZB1oQKyTA+rLL
4rB6pKY2UvwuDgoNorAZgUU+UbYKyhwyrTSi3bcHG2f68sg8iqjJ7xbayeiiw/DG
oX3FyTeDhW26VMFvDOYuWcruKIOf5Rl5qvblF5Atm2PNIEsa0WM3dYSOi93Qlb2D
abj//4qAfwQbSeCuGWt9Dovve5BL1P2I1dMlcbb62YccIEI8am4y4yRRTqMbeLjS
MhDW3RxwYdVYkSYorYRcvXU6ZqKPmq04CKkbfG6DXiED2MLBtgQktngmIjN/BeXh
mV+xol1/yRtGFiWJiKRqp5kvz8K908yo6IchOZN68m+bTVfC/cU7mbwWTzq6/zz7
4AA=
-----END CERTIFICATE-----
