Certificate:
    Data:
        Version: 3 (0x2)
        Serial Number:
            13:ad:9c:b8:17:49:ef:aa:52:b1:9b:6e:a7:67:61:c7
        Signature Algorithm: sha256WithRSAEncryption
        Issuer: C=DE, O=Green Delta, CN=Root CA
        Validity
            Not Before: Jun  7 16:24:36 2023 GMT
            Not After : Jun  4 16:24:36 2033 GMT
        Subject: C=DE, O=Green Delta, CN=Nexus CA
        Subject Public Key Info:
            Public Key Algorithm: rsaEncryption
                Public-Key: (2048 bit)
                Modulus:
                    00:c6:f4:4b:70:16:26:42:be:80:84:5e:d9:e3:04:
                    f1:78:e3:57:2c:80:b5:03:c4:c1:85:0d:56:f7:92:
                    0e:e1:de:63:aa:e0:80:0d:f0:a7:b7:50:62:a3:10:
                    85:69:2f:96:d7:79:93:d8:9c:05:ab:7d:fb:89:4b:
                    65:e2:46:c4:8c:c4:7d:e3:4a:40:c1:94:6c:ce:c0:
                    f2:ff:60:91:58:22:53:b2:dd:da:54:c1:cf:04:9a:
                    bb:2a:26:9a:e0:9b:40:08:5c:5f:8e:b0:5b:1a:88:
                    5d:45:e0:80:54:ca:b5:14:b0:a8:61:87:27:5d:cd:
                    b3:ac:93:9b:00:03:db:94:7f:a5:78:40:2c:55:d7:
                    4c:8a:80:f4:ce:10:61:7b:df:88:d8:6d:36:ce:db:
                    2c:aa:e0:6b:39:0e:44:b4:27:4c:e2:7c:6c:ba:b9:
                    c3:c1:e4:a2:87:14:d2:90:67:07:a3:e8:e4:9c:0d:
                    85:d1:fb:a5:0c:12:d8:df:46:6c:af:3b:bd:f3:63:
                    0a:81:68:b4:b9:69:41:76:2d:fb:42:85:a1:36:57:
                    96:54:1b:83:b7:dd:93:e2:b5:94:3f:d0:81:91:e5:
                    58:28:9a:c8:19:62:65:35:4e:20:ee:3d:cc:f3:e7:
                    0f:9b:b8:eb:50:57:31:dc:95:6d:53:3e:05:d1:ac:
                    6a:91
                Exponent: 65537 (0x10001)
        X509v3 extensions:
            Authority Information Access: 
                CA Issuers - URI:http://root-ca.nexus.openlca.org/root-ca.crt
                OCSP - URI:http://ocsp.root-ca.nexus.openlca.org:9080
            X509v3 Authority Key Identifier: 
                54:A5:BC:B4:63:90:79:40:05:1E:65:75:05:BF:B2:25:D5:35:D4:22
            X509v3 Basic Constraints: critical
                CA:TRUE, pathlen:0
            X509v3 CRL Distribution Points: 
                Full Name:
                  URI:http://root-ca.nexus.openlca.org/root-ca.crl
            X509v3 Extended Key Usage: 
                TLS Web Client Authentication, TLS Web Server Authentication
            X509v3 Key Usage: critical
                Certificate Sign, CRL Sign
            X509v3 Name Constraints: 
                Permitted:
                  DNS:example.com
                  DNS:example.org
                Excluded:
                  IP:0.0.0.0/0.0.0.0
                  IP:0:0:0:0:0:0:0:0/0:0:0:0:0:0:0:0
            X509v3 Subject Key Identifier: 
                D0:38:FB:FB:CB:0A:0B:B5:AF:18:46:18:5F:3C:C8:F5:C5:B9:F0:21
    Signature Algorithm: sha256WithRSAEncryption
    Signature Value:
        99:f7:f0:07:92:e7:04:0a:6c:cc:60:b0:b0:af:21:1a:a2:e3:
        fb:81:a8:43:63:07:06:c5:26:b7:6e:68:77:ec:a1:a2:42:ab:
        19:51:10:51:2c:40:2a:25:f6:36:c9:56:2c:dc:1a:59:20:12:
        6d:89:b2:a8:99:d3:79:36:7a:48:7b:80:88:09:b0:f3:4d:89:
        dd:02:a3:25:d3:87:56:b0:ff:2c:ec:9f:b0:3c:02:7a:96:c9:
        ac:96:00:e8:2d:ff:d8:9d:e5:b8:d0:4d:af:aa:c1:56:03:cf:
        61:9b:da:5e:bc:55:7c:d1:a4:77:85:2d:65:42:11:9e:e7:e4:
        69:05:f9:ad:79:38:dc:d7:82:ec:5a:f0:63:13:96:24:ba:e4:
        0f:1b:3c:5b:11:ce:d8:89:b5:2a:57:61:77:d0:b3:a0:0f:f7:
        e4:21:11:3c:c3:5e:34:22:b0:7e:2a:d2:78:c1:b4:44:1c:b4:
        e9:f4:88:ab:11:3f:17:58:1d:1e:3e:0e:a8:cf:71:3b:30:25:
        17:8e:b2:ce:0f:23:cc:f1:5b:05:fc:a9:90:61:24:54:f1:f9:
        3e:8a:e4:3e:e0:d9:05:43:22:84:05:09:c7:03:6c:df:a0:bb:
        20:d7:6f:23:1a:8e:d8:b1:33:ec:cd:42:5a:7c:fb:56:6e:0b:
        01:89:ba:82:e9:98:2e:7b:36:00:ee:6e:1c:ae:9d:52:d6:e7:
        8e:fe:17:41:19:62:b6:4e:60:8c:17:02:2b:b9:d5:f4:3c:e8:
        bb:70:9b:89:cd:8f:eb:e5:40:d9:f5:bb:43:b0:c5:93:d4:87:
        63:c0:c5:ff:6c:18:6c:c9:87:5e:73:f2:48:7e:b0:14:34:05:
        97:69:30:fc:7f:c8:f3:33:fc:1b:86:8d:51:8d:63:42:ea:68:
        41:0e:40:2e:1f:bf:21:f2:f1:4e:ca:1b:ae:fa:2c:bc:43:9d:
        59:34:04:d8:a5:01:3d:3c:d8:aa:b8:88:ef:dc:40:4d:ce:a2:
        fb:60:57:51:ea:aa:71:79:23:09:d1:3d:95:7a:c5:51:8a:4c:
        16:11:76:fd:fe:e8:91:60:29:2d:ab:84:bc:83:da:71:42:73:
        b1:8d:06:c7:5a:82:33:65:85:5a:cc:da:16:69:c1:31:bc:00:
        b4:13:ee:e3:67:7c:55:5a:07:df:ae:5e:27:92:31:24:55:0a:
        5f:d4:08:d3:6d:2c:5b:55:e6:e9:1c:42:3f:0f:49:0c:42:a0:
        ac:be:d6:77:64:d0:36:53:ce:13:28:c5:49:13:ad:33:8a:b1:
        a6:40:5b:e5:10:13:ff:d1:b6:7e:6a:2a:13:05:d2:6a:b7:e6:
        1d:e7:85:f6:9b:74:54:42
-----BEGIN CERTIFICATE-----
MIIFnTCCA4WgAwIBAgIQE62cuBdJ76pSsZtup2dhxzANBgkqhkiG9w0BAQsFADA1
MQswCQYDVQQGEwJERTEUMBIGA1UECgwLR3JlZW4gRGVsdGExEDAOBgNVBAMMB1Jv
b3QgQ0EwHhcNMjMwNjA3MTYyNDM2WhcNMzMwNjA0MTYyNDM2WjA2MQswCQYDVQQG
EwJERTEUMBIGA1UECgwLR3JlZW4gRGVsdGExETAPBgNVBAMMCE5leHVzIENBMIIB
IjANBgkqhkiG9w0BAQEFAAOCAQ8AMIIBCgKCAQEAxvRLcBYmQr6AhF7Z4wTxeONX
LIC1A8TBhQ1W95IO4d5jquCADfCnt1BioxCFaS+W13mT2JwFq337iUtl4kbEjMR9
40pAwZRszsDy/2CRWCJTst3aVMHPBJq7Kiaa4JtACFxfjrBbGohdReCAVMq1FLCo
YYcnXc2zrJObAAPblH+leEAsVddMioD0zhBhe9+I2G02ztssquBrOQ5EtCdM4nxs
urnDweSihxTSkGcHo+jknA2F0fulDBLY30Zsrzu982MKgWi0uWlBdi37QoWhNleW
VBuDt92T4rWUP9CBkeVYKJrIGWJlNU4g7j3M8+cPm7jrUFcx3JVtUz4F0axqkQID
AQABo4IBpjCCAaIwgYAGCCsGAQUFBwEBBHQwcjA4BggrBgEFBQcwAoYsaHR0cDov
L3Jvb3QtY2EubmV4dXMub3BlbmxjYS5vcmcvcm9vdC1jYS5jcnQwNgYIKwYBBQUH
MAGGKmh0dHA6Ly9vY3NwLnJvb3QtY2EubmV4dXMub3BlbmxjYS5vcmc6OTA4MDAf
BgNVHSMEGDAWgBRUpby0Y5B5QAUeZXUFv7Il1TXUIjASBgNVHRMBAf8ECDAGAQH/
AgEAMD0GA1UdHwQ2MDQwMqAwoC6GLGh0dHA6Ly9yb290LWNhLm5leHVzLm9wZW5s
Y2Eub3JnL3Jvb3QtY2EuY3JsMB0GA1UdJQQWMBQGCCsGAQUFBwMCBggrBgEFBQcD
ATAOBgNVHQ8BAf8EBAMCAQYwWwYDVR0eBFQwUqAeMA2CC2V4YW1wbGUuY29tMA2C
C2V4YW1wbGUub3JnoTAwCocIAAAAAAAAAAAwIocgAAAAAAAAAAAAAAAAAAAAAAAA
AAAAAAAAAAAAAAAAAAAwHQYDVR0OBBYEFNA4+/vLCgu1rxhGGF88yPXFufAhMA0G
CSqGSIb3DQEBCwUAA4ICAQCZ9/AHkucECmzMYLCwryEaouP7gahDYwcGxSa3bmh3
7KGiQqsZURBRLEAqJfY2yVYs3BpZIBJtibKomdN5NnpIe4CICbDzTYndAqMl04dW
sP8s7J+wPAJ6lsmslgDoLf/YneW40E2vqsFWA89hm9pevFV80aR3hS1lQhGe5+Rp
BfmteTjc14LsWvBjE5YkuuQPGzxbEc7YibUqV2F30LOgD/fkIRE8w140IrB+KtJ4
wbREHLTp9IirET8XWB0ePg6oz3E7MCUXjrLODyPM8VsF/KmQYSRU8fk+iuQ+4NkF
QyKEBQnHA2zfoLsg128jGo7YsTPszUJafPtWbgsBibqC6ZguezYA7m4crp1S1ueO
/hdBGWK2TmCMFwIrudX0POi7cJuJzY/r5UDZ9btDsMWT1IdjwMX/bBhsyYdec/JI
frAUNAWXaTD8f8jzM/wbho1RjWNC6mhBDkAuH78h8vFOyhuu+iy8Q51ZNATYpQE9
PNiquIjv3EBNzqL7YFdR6qpxeSMJ0T2VesVRikwWEXb9/uiRYCktq4S8g9pxQnOx
jQbHWoIzZYVazNoWacExvAC0E+7jZ3xVWgffrl4nkjEkVQpf1AjTbSxbVebpHEI/
D0kMQqCsvtZ3ZNA2U84TKMVJE60zirGmQFvlEBP/0bZ+aioTBdJqt+Yd54X2m3RU
Qg==
-----END CERTIFICATE-----
