Certificate:
    Data:
        Version: 3 (0x2)
        Serial Number:
            ba:f2:0e:0a:23:0d:1d:a6:c0:e0:d6:7f:18:e4:40:14
        Signature Algorithm: sha256WithRSAEncryption
        Issuer: C=DE, O=GreenDelta GmbH, CN=Root CA/emailAddress=gd@greendelta.com
        Validity
            Not Before: Aug 10 11:47:38 2023 GMT
            Not After : Aug  7 11:47:38 2033 GMT
        Subject: C=DE, O=GreenDelta GmbH, CN=Nexus CA/emailAddress=gd@greendelta.com
        Subject Public Key Info:
            Public Key Algorithm: rsaEncryption
                Public-Key: (2048 bit)
                Modulus:
                    00:c4:34:e7:e9:d1:f5:8d:58:dd:74:1f:6e:fe:58:
                    be:15:a3:1a:5a:db:dc:d4:30:fa:d7:70:8a:dd:9f:
                    ed:8a:ae:aa:8b:90:02:a7:17:4b:b3:d7:29:52:53:
                    24:a8:f1:5e:cb:ab:c4:46:07:d3:47:60:60:56:b1:
                    df:47:35:86:ae:24:3d:3f:70:bc:0e:ac:39:2a:f3:
                    8a:dc:f5:75:84:30:04:1c:08:9e:d4:a4:4d:1b:12:
                    a8:71:fa:71:30:05:74:7b:e7:d5:3d:ef:73:5f:81:
                    d0:2f:d0:dd:d8:2b:1e:c0:05:aa:46:f9:5b:4c:57:
                    f5:da:a1:44:0e:5b:f0:95:72:fb:65:6d:2c:83:41:
                    b4:10:6a:04:32:73:4e:d9:52:08:c9:c5:5a:e1:09:
                    8f:64:47:53:e4:eb:48:70:95:68:7d:fb:2d:7c:fe:
                    32:d8:60:93:0e:1f:49:64:0d:dd:56:32:4d:24:51:
                    48:70:24:3b:70:69:7c:f5:68:40:7f:d8:18:b4:9a:
                    27:3a:4e:27:81:1b:64:76:21:e5:d8:4a:73:34:4a:
                    e5:89:9c:61:ba:7e:20:a9:03:1e:7e:bd:11:21:06:
                    da:4f:b6:48:11:54:ce:b8:a6:65:27:a3:65:95:75:
                    23:dc:29:35:f3:f2:d0:69:2b:d6:59:3a:3d:52:a4:
                    c2:6d
                Exponent: 65537 (0x10001)
        X509v3 extensions:
            Authority Information Access: 
                CA Issuers - URI:http://root-ca.nexus.openlca.org/root-ca.crt
                OCSP - URI:http://ocsp.root-ca.nexus.openlca.org:9080
            X509v3 Authority Key Identifier: 
                F3:16:28:40:E8:0E:32:C6:44:97:5C:0A:93:E6:98:E7:3C:6D:70:F2
            X509v3 Basic Constraints: critical
                CA:TRUE, pathlen:0
            X509v3 CRL Distribution Points: 
                Full Name:
                  URI:http://root-ca.nexus.openlca.org/root-ca.crl
            X509v3 Extended Key Usage: 
                TLS Web Client Authentication, TLS Web Server Authentication
            X509v3 Key Usage: critical
                Certificate Sign, CRL Sign
            X509v3 Name Constraints: 
                Permitted:
                  DNS:example.com
                  DNS:example.org
                Excluded:
                  IP:0.0.0.0/0.0.0.0
                  IP:0:0:0:0:0:0:0:0/0:0:0:0:0:0:0:0
            X509v3 Subject Key Identifier: 
                A9:7E:A2:30:C7:13:B1:11:6E:ED:87:95:67:40:30:47:37:B3:75:D1
    Signature Algorithm: sha256WithRSAEncryption
    Signature Value:
        e4:66:b0:22:e9:44:cc:b3:dc:ba:a9:5a:16:67:c2:ca:38:d7:
        19:ec:80:99:2a:27:76:25:0f:af:ea:b9:af:39:85:70:22:1d:
        d3:7d:7a:dc:cb:e1:7f:22:20:87:8f:d2:35:85:7e:29:e0:77:
        6f:9d:3e:98:28:37:c4:04:26:df:dc:ae:83:07:cd:e3:f5:c6:
        0a:1e:9d:86:9d:3c:c3:c5:5f:ad:31:53:3d:72:33:9e:06:11:
        2c:29:2e:d5:44:b7:a3:7e:df:0d:ce:07:48:95:cf:e8:8d:1f:
        22:54:6d:4e:3b:f8:cd:2c:b2:94:44:55:d4:8f:5d:43:5c:01:
        4f:e6:76:26:28:9f:9f:54:ab:a0:17:e4:c3:b9:b6:13:f4:ae:
        99:42:38:57:0b:b9:66:5a:76:42:0c:13:71:98:58:61:20:19:
        c9:26:9b:d8:20:49:61:de:2d:88:33:56:d3:4f:c8:70:1a:5b:
        01:7a:65:77:aa:fd:3d:a0:f4:8d:e4:be:90:7f:8e:f7:80:c8:
        9d:4a:23:0b:1c:10:db:bf:c5:af:66:e3:61:69:f3:d2:90:fa:
        9a:24:62:57:42:5c:59:6e:b6:bb:22:f6:78:11:2c:1c:ea:3d:
        ef:ff:6c:62:59:d9:1e:88:0b:ba:f5:c5:65:e6:d6:96:77:35:
        6e:33:a3:3d:59:0d:d0:4f:95:e6:d0:72:51:f2:47:a5:8b:3a:
        ac:de:01:88:b2:55:ba:1a:4c:4d:08:76:2c:07:bd:8d:be:91:
        1f:33:d1:6d:86:d4:c9:a1:c4:e7:47:ff:ec:cf:34:cf:3c:3e:
        66:96:65:c1:ed:20:fa:88:77:6c:44:f9:16:42:13:8e:1d:b5:
        48:0b:c6:4a:0c:aa:10:e0:eb:41:b1:b2:28:6d:0c:fc:f4:18:
        84:e7:15:54:07:04:10:de:fa:36:83:85:77:db:e5:f8:22:25:
        4c:84:f1:ac:20:37:e7:12:5b:1b:d7:9e:f8:e6:41:85:c1:3b:
        c6:e9:d8:3e:1b:98:85:b0:71:5f:6d:6f:8a:a8:12:b8:49:22:
        e9:78:08:4f:4e:11:f9:c3:d8:c8:3d:70:99:a1:e2:aa:0d:7a:
        e3:45:e6:37:9f:60:00:b8:be:f5:4e:3c:10:60:eb:1c:e3:05:
        11:cc:ec:ed:a2:ec:af:ad:ae:62:b5:71:cc:13:8d:fd:9b:4e:
        c2:7b:f2:9c:b6:50:1e:54:71:22:dc:cd:58:73:1a:76:d4:d6:
        8d:83:d9:f6:20:b7:07:58:37:72:a5:89:0e:28:23:e7:d2:33:
        34:c9:49:5d:4c:20:2b:c5:1b:16:13:b6:f6:01:88:bb:97:08:
        e7:d7:1c:20:47:d9:e1:0c
-----BEGIN CERTIFICATE-----
MIIF6jCCA9KgAwIBAgIRALryDgojDR2mwODWfxjkQBQwDQYJKoZIhvcNAQELBQAw
WzELMAkGA1UEBhMCREUxGDAWBgNVBAoMD0dyZWVuRGVsdGEgR21iSDEQMA4GA1UE
AwwHUm9vdCBDQTEgMB4GCSqGSIb3DQEJARYRZ2RAZ3JlZW5kZWx0YS5jb20wHhcN
MjMwODEwMTE0NzM4WhcNMzMwODA3MTE0NzM4WjBcMQswCQYDVQQGEwJERTEYMBYG
A1UECgwPR3JlZW5EZWx0YSBHbWJIMREwDwYDVQQDDAhOZXh1cyBDQTEgMB4GCSqG
SIb3DQEJARYRZ2RAZ3JlZW5kZWx0YS5jb20wggEiMA0GCSqGSIb3DQEBAQUAA4IB
DwAwggEKAoIBAQDENOfp0fWNWN10H27+WL4Voxpa29zUMPrXcIrdn+2KrqqLkAKn
F0uz1ylSUySo8V7Lq8RGB9NHYGBWsd9HNYauJD0/cLwOrDkq84rc9XWEMAQcCJ7U
pE0bEqhx+nEwBXR759U973NfgdAv0N3YKx7ABapG+VtMV/XaoUQOW/CVcvtlbSyD
QbQQagQyc07ZUgjJxVrhCY9kR1Pk60hwlWh9+y18/jLYYJMOH0lkDd1WMk0kUUhw
JDtwaXz1aEB/2Bi0mic6TieBG2R2IeXYSnM0SuWJnGG6fiCpAx5+vREhBtpPtkgR
VM64pmUno2WVdSPcKTXz8tBpK9ZZOj1SpMJtAgMBAAGjggGmMIIBojCBgAYIKwYB
BQUHAQEEdDByMDgGCCsGAQUFBzAChixodHRwOi8vcm9vdC1jYS5uZXh1cy5vcGVu
bGNhLm9yZy9yb290LWNhLmNydDA2BggrBgEFBQcwAYYqaHR0cDovL29jc3Aucm9v
dC1jYS5uZXh1cy5vcGVubGNhLm9yZzo5MDgwMB8GA1UdIwQYMBaAFPMWKEDoDjLG
RJdcCpPmmOc8bXDyMBIGA1UdEwEB/wQIMAYBAf8CAQAwPQYDVR0fBDYwNDAyoDCg
LoYsaHR0cDovL3Jvb3QtY2EubmV4dXMub3BlbmxjYS5vcmcvcm9vdC1jYS5jcmww
HQYDVR0lBBYwFAYIKwYBBQUHAwIGCCsGAQUFBwMBMA4GA1UdDwEB/wQEAwIBBjBb
BgNVHR4EVDBSoB4wDYILZXhhbXBsZS5jb20wDYILZXhhbXBsZS5vcmehMDAKhwgA
AAAAAAAAADAihyAAAAAAAAAAAAAAAAAAAAAAAAAAAAAAAAAAAAAAAAAAADAdBgNV
HQ4EFgQUqX6iMMcTsRFu7YeVZ0AwRzezddEwDQYJKoZIhvcNAQELBQADggIBAORm
sCLpRMyz3LqpWhZnwso41xnsgJkqJ3YlD6/qua85hXAiHdN9etzL4X8iIIeP0jWF
fingd2+dPpgoN8QEJt/croMHzeP1xgoenYadPMPFX60xUz1yM54GESwpLtVEt6N+
3w3OB0iVz+iNHyJUbU47+M0sspREVdSPXUNcAU/mdiYon59Uq6AX5MO5thP0rplC
OFcLuWZadkIME3GYWGEgGckmm9ggSWHeLYgzVtNPyHAaWwF6ZXeq/T2g9I3kvpB/
jveAyJ1KIwscENu/xa9m42Fp89KQ+pokYldCXFlutrsi9ngRLBzqPe//bGJZ2R6I
C7r1xWXm1pZ3NW4zoz1ZDdBPlebQclHyR6WLOqzeAYiyVboaTE0IdiwHvY2+kR8z
0W2G1MmhxOdH/+zPNM88PmaWZcHtIPqId2xE+RZCE44dtUgLxkoMqhDg60Gxsiht
DPz0GITnFVQHBBDe+jaDhXfb5fgiJUyE8awgN+cSWxvXnvjmQYXBO8bp2D4bmIWw
cV9tb4qoErhJIul4CE9OEfnD2Mg9cJmh4qoNeuNF5jefYAC4vvVOPBBg6xzjBRHM
7O2i7K+trmK1ccwTjf2bTsJ78py2UB5UcSLczVhzGnbU1o2D2fYgtwdYN3KliQ4o
I+fSMzTJSV1MICvFGxYTtvYBiLuXCOfXHCBH2eEM
-----END CERTIFICATE-----
